(lp1
(lp2
I3
aI0
aI0
aI0
aa(lp3
I13
aI0
aI0
aI0
aa(lp4
I9
aI0
aI0
aI0
aa(lp5
I0
aI0
aI0
aI0
aa(lp6
I18
aI0
aI0
aI0
aa(lp7
I12
aI0
aI0
aI0
aa(lp8
I19
aI0
aI0
aI0
aa(lp9
I7
aI0
aI0
aI0
aa(lp10
I21
aI0
aI0
aI0
aa.